; ModuleID = 'bench/linux/original/memweight.ll'
source_filename = "bench/linux/original/memweight.ll"
target datalayout = "e-m:e-p270:32:32-p271:32:32-p272:64:64-i64:64-i128:128-f80:128-n8:16:32:64-S128"
target triple = "x86_64-unknown-linux-gnu"

module asm ".section \22.export_symbol\22,\22a\22 ; __export_symbol_memweight: ; .asciz \22\22 ; .asciz \22\22 ; .balign 8 ; .quad memweight ; .previous"

@.str = private unnamed_addr constant [16 x i8] c"lib/memweight.c\00", align 1
@__UNIQUE_ID___addressable_memweight3 = internal global ptr @memweight, section ".discard.addressable", align 8
@llvm.compiler.used = appending global [1 x ptr] [ptr @__UNIQUE_ID___addressable_memweight3], section "llvm.metadata"

; Function Attrs: fn_ret_thunk_extern nounwind null_pointer_is_valid
define dso_local i64 @memweight(ptr noundef %0, i64 noundef %1) #0 align 16 {
  %3 = icmp ne i64 %1, 0
  %4 = ptrtoint ptr %0 to i64
  %5 = and i64 %4, 7
  %6 = icmp ne i64 %5, 0
  %7 = and i1 %3, %6
  br i1 %7, label %.preheader3, label %.loopexit4

.preheader3:                                      ; preds = %2, %.preheader3
  %8 = phi ptr [ %17, %.preheader3 ], [ %0, %2 ]
  %9 = phi i64 [ %15, %.preheader3 ], [ 0, %2 ]
  %10 = phi i64 [ %16, %.preheader3 ], [ %1, %2 ]
  %11 = load i8, ptr %8, align 1
  %12 = zext i8 %11 to i32
  %13 = tail call i32 asm "# ALT: oldnstr\0A661:\0A\09call __sw_hweight32\0A662:\0A# ALT: padding\0A.skip -(((6651f-6641f)-(662b-661b)) > 0) * ((6651f-6641f)-(662b-661b)),0x90\0A663:\0A.pushsection .altinstructions,\22a\22\0A .long 661b - .\0A .long 6641f - .\0A .4byte ( 4*32+23)\0A .byte 663b-661b\0A .byte 6651f-6641f\0A.popsection\0A.pushsection .altinstr_replacement, \22ax\22\0A# ALT: replacement 1\0A6641:\0A\09popcntl $1, $0\0A6651:\0A.popsection\0A", "={ax},{di},~{dirflag},~{fpsr},~{flags}"(i32 %12) #2, !srcloc !5
  %14 = zext i32 %13 to i64
  %15 = add i64 %9, %14
  %16 = add i64 %10, -1
  %17 = getelementptr i8, ptr %8, i64 1
  %18 = icmp ne i64 %16, 0
  %19 = ptrtoint ptr %17 to i64
  %20 = and i64 %19, 7
  %21 = icmp ne i64 %20, 0
  %22 = and i1 %18, %21
  br i1 %22, label %.preheader3, label %.loopexit4, !llvm.loop !6

.loopexit4:                                       ; preds = %.preheader3, %2
  %23 = phi i64 [ %1, %2 ], [ %16, %.preheader3 ]
  %24 = phi i64 [ 0, %2 ], [ %15, %.preheader3 ]
  %25 = phi ptr [ %0, %2 ], [ %17, %.preheader3 ]
  %26 = icmp ult i64 %23, 8
  br i1 %26, label %40, label %27

27:                                               ; preds = %.loopexit4
  %28 = icmp ugt i64 %23, 268435447
  br i1 %28, label %29, label %30, !prof !9

29:                                               ; preds = %27
  tail call void asm sideeffect "2: nop\0A\09.pushsection .discard.instr_begin\0A\09.long 2b - .\0A\09.popsection\0A\09", "i,~{dirflag},~{fpsr},~{flags}"(i32 2) #3, !srcloc !10
  tail call void asm sideeffect "1:\09.byte 0x0f, 0x0b\0A.pushsection __bug_table,\22aw\22\0A2:\09.long 1b - .\09# bug_entry::bug_addr\0A\09.long ${0:c} - .\09# bug_entry::file\0A\09.word ${1:c}\09# bug_entry::line\0A\09.word ${2:c}\09# bug_entry::flags\0A\09.org 2b+${3:c}\0A.popsection\0A", "i,i,i,i,~{dirflag},~{fpsr},~{flags}"(ptr nonnull @.str, i32 23, i32 0, i64 12) #3, !srcloc !11
  unreachable

30:                                               ; preds = %27
  %31 = trunc i64 %23 to i32
  %32 = shl nuw nsw i32 %31, 3
  %33 = and i32 %32, 2147483584
  %34 = tail call i32 @__bitmap_weight(ptr noundef %25, i32 noundef %33) #3
  %35 = zext i32 %34 to i64
  %36 = add i64 %24, %35
  %37 = and i64 %23, 268435448
  %38 = and i64 %23, 7
  %39 = getelementptr i8, ptr %25, i64 %37
  br label %40

40:                                               ; preds = %30, %.loopexit4
  %41 = phi i64 [ %38, %30 ], [ %23, %.loopexit4 ]
  %42 = phi i64 [ %36, %30 ], [ %24, %.loopexit4 ]
  %43 = phi ptr [ %39, %30 ], [ %25, %.loopexit4 ]
  %44 = icmp eq i64 %41, 0
  br i1 %44, label %.loopexit, label %.preheader

.preheader:                                       ; preds = %40, %.preheader
  %45 = phi ptr [ %54, %.preheader ], [ %43, %40 ]
  %46 = phi i64 [ %52, %.preheader ], [ %42, %40 ]
  %47 = phi i64 [ %53, %.preheader ], [ %41, %40 ]
  %48 = load i8, ptr %45, align 1
  %49 = zext i8 %48 to i32
  %50 = tail call i32 asm "# ALT: oldnstr\0A661:\0A\09call __sw_hweight32\0A662:\0A# ALT: padding\0A.skip -(((6651f-6641f)-(662b-661b)) > 0) * ((6651f-6641f)-(662b-661b)),0x90\0A663:\0A.pushsection .altinstructions,\22a\22\0A .long 661b - .\0A .long 6641f - .\0A .4byte ( 4*32+23)\0A .byte 663b-661b\0A .byte 6651f-6641f\0A.popsection\0A.pushsection .altinstr_replacement, \22ax\22\0A# ALT: replacement 1\0A6641:\0A\09popcntl $1, $0\0A6651:\0A.popsection\0A", "={ax},{di},~{dirflag},~{fpsr},~{flags}"(i32 %49) #2, !srcloc !5
  %51 = zext i32 %50 to i64
  %52 = add i64 %46, %51
  %53 = add nsw i64 %47, -1
  %54 = getelementptr i8, ptr %45, i64 1
  %55 = icmp eq i64 %53, 0
  br i1 %55, label %.loopexit, label %.preheader, !llvm.loop !12

.loopexit:                                        ; preds = %.preheader, %40
  %56 = phi i64 [ %42, %40 ], [ %52, %.preheader ]
  ret i64 %56
}

; Function Attrs: null_pointer_is_valid
declare dso_local i32 @__bitmap_weight(ptr noundef, i32 noundef) local_unnamed_addr #1


!llvm.module.flags = !{!0, !1, !2, !3, !4}

!0 = !{i32 1, !"wchar_size", i32 2}
!1 = !{i32 8, !"cf-protection-branch", i32 1}
!2 = !{i32 4, !"function_return_thunk_extern", i32 1}
!3 = !{i32 4, !"indirect_branch_cs_prefix", i32 1}
!4 = !{i32 4, !"SkipRaxSetup", i32 1}
!5 = !{i64 2147949393, i64 2147949421, i64 2147949427, i64 2147949443, i64 2147949459, i64 2147949486, i64 2147949819, i64 2147949119, i64 2147949825, i64 2147949873, i64 2147949937, i64 2147950001, i64 2147950058, i64 2147949200, i64 2147949225, i64 2147950265, i64 2147950395, i64 2147950326, i64 2147950409, i64 2147949317}
!6 = distinct !{!6, !7, !8}
!7 = !{!"llvm.loop.mustprogress"}
!8 = !{!"llvm.loop.unroll.disable"}
!9 = !{!"branch_weights", i32 1, i32 2000}
!10 = !{i64 2148126180, i64 2148125999, i64 2148126051, i64 2148126097, i64 2148126125}
!11 = !{i64 2148126248, i64 2148126277, i64 2148126323, i64 2148126381, i64 2148126435, i64 2148126489, i64 2148126544, i64 2148126575}
!12 = distinct !{!12, !7, !8}
